target datalayout = "e-m:e-p270:32:32-p271:32:32-p272:64:64-i64:64-i128:128-f80:128-n8:16:32:64-S128"
target triple = "x86_64-pc-linux-gnu"

%struct.jpeg_compress_struct = type { ptr, ptr, ptr, ptr, i32, i32, ptr, i32, i32, i32, i32, double, i32, i32, i32, ptr, [4 x ptr], [4 x ptr], [4 x ptr], [16 x i8], [16 x i8], [16 x i8], i32, ptr, i32, i32, i32, i32, i32, i32, i32, i32, i32, i8, i8, i8, i16, i16, i32, i32, i32, i32, i32, i32, i32, [4 x ptr], i32, i32, i32, [10 x i32], i32, i32, i32, i32, ptr, ptr, ptr, ptr, ptr, ptr, ptr, ptr, ptr, ptr, i32 }
%struct.phuff_entropy_encoder = type { %struct.jpeg_entropy_encoder, ptr, ptr, i32, ptr, i64, i64, i32, ptr, [4 x i32], i32, i32, i32, ptr, i32, i32, [4 x ptr], [4 x ptr] }
%struct.jpeg_entropy_encoder = type { ptr, ptr, ptr, ptr }
%struct.jpeg_destination_mgr = type { ptr, i64, ptr, ptr, ptr }

; Function Attrs: nounwind uwtable
define internal i32 @encode_mcu_DC_refine(ptr noundef %0, ptr noundef %1) #0 {
  %3 = alloca ptr, align 8
  %4 = alloca ptr, align 8
  %5 = alloca ptr, align 8
  %6 = alloca i32, align 4
  %7 = alloca i32, align 4
  %8 = alloca i32, align 4
  %9 = alloca ptr, align 8
  store ptr %0, ptr %3, align 8, !tbaa !3
  store ptr %1, ptr %4, align 8, !tbaa !68
  call void @llvm.lifetime.start.p0(i64 8, ptr %5) #6
  %10 = load ptr, ptr %3, align 8, !tbaa !3
  %11 = getelementptr inbounds nuw %struct.jpeg_compress_struct, ptr %10, i32 0, i32 62
  %12 = load ptr, ptr %11, align 8, !tbaa !30
  store ptr %12, ptr %5, align 8, !tbaa !29
  call void @llvm.lifetime.start.p0(i64 4, ptr %6) #6
  call void @llvm.lifetime.start.p0(i64 4, ptr %7) #6
  call void @llvm.lifetime.start.p0(i64 4, ptr %8) #6
  %13 = load ptr, ptr %3, align 8, !tbaa !3
  %14 = getelementptr inbounds nuw %struct.jpeg_compress_struct, ptr %13, i32 0, i32 53
  %15 = load i32, ptr %14, align 8, !tbaa !70
  store i32 %15, ptr %8, align 4, !tbaa !35
  call void @llvm.lifetime.start.p0(i64 8, ptr %9) #6
  %16 = load ptr, ptr %3, align 8, !tbaa !3
  %17 = getelementptr inbounds nuw %struct.jpeg_compress_struct, ptr %16, i32 0, i32 6
  %18 = load ptr, ptr %17, align 8, !tbaa !72
  %19 = getelementptr inbounds nuw %struct.jpeg_destination_mgr, ptr %18, i32 0, i32 0
  %20 = load ptr, ptr %19, align 8, !tbaa !73
  %21 = load ptr, ptr %5, align 8, !tbaa !29
  %22 = getelementptr inbounds nuw %struct.phuff_entropy_encoder, ptr %21, i32 0, i32 4
  store ptr %20, ptr %22, align 8, !tbaa !75
  %23 = load ptr, ptr %3, align 8, !tbaa !3
  %24 = getelementptr inbounds nuw %struct.jpeg_compress_struct, ptr %23, i32 0, i32 6
  %25 = load ptr, ptr %24, align 8, !tbaa !72
  %26 = getelementptr inbounds nuw %struct.jpeg_destination_mgr, ptr %25, i32 0, i32 1
  %27 = load i64, ptr %26, align 8, !tbaa !76
  %28 = load ptr, ptr %5, align 8, !tbaa !29
  %29 = getelementptr inbounds nuw %struct.phuff_entropy_encoder, ptr %28, i32 0, i32 5
  store i64 %27, ptr %29, align 8, !tbaa !77
  %30 = load ptr, ptr %3, align 8, !tbaa !3
  %31 = getelementptr inbounds nuw %struct.jpeg_compress_struct, ptr %30, i32 0, i32 30
  %32 = load i32, ptr %31, align 8, !tbaa !65
  %33 = icmp ne i32 %32, 0
  br i1 %33, label %34, label %45

34:                                               ; preds = %2
  %35 = load ptr, ptr %5, align 8, !tbaa !29
  %36 = getelementptr inbounds nuw %struct.phuff_entropy_encoder, ptr %35, i32 0, i32 14
  %37 = load i32, ptr %36, align 8, !tbaa !66
  %38 = icmp eq i32 %37, 0
  br i1 %38, label %39, label %44

39:                                               ; preds = %34
  %40 = load ptr, ptr %5, align 8, !tbaa !29
  %41 = load ptr, ptr %5, align 8, !tbaa !29
  %42 = getelementptr inbounds nuw %struct.phuff_entropy_encoder, ptr %41, i32 0, i32 15
  %43 = load i32, ptr %42, align 4, !tbaa !67
  call void @emit_restart(ptr noundef %40, i32 noundef %43)
  br label %44

44:                                               ; preds = %39, %34
  br label %45

45:                                               ; preds = %44, %2
  store i32 0, ptr %7, align 4, !tbaa !35
  br label %46

46:                                               ; preds = %66, %45
  %47 = load i32, ptr %7, align 4, !tbaa !35
  %48 = load ptr, ptr %3, align 8, !tbaa !3
  %49 = getelementptr inbounds nuw %struct.jpeg_compress_struct, ptr %48, i32 0, i32 48
  %50 = load i32, ptr %49, align 8, !tbaa !78
  %51 = icmp slt i32 %47, %50
  br i1 %51, label %52, label %69

52:                                               ; preds = %46
  %53 = load ptr, ptr %4, align 8, !tbaa !68
  %54 = load i32, ptr %7, align 4, !tbaa !35
  %55 = sext i32 %54 to i64
  %56 = getelementptr inbounds ptr, ptr %53, i64 %55
  %57 = load ptr, ptr %56, align 8, !tbaa !79
  store ptr %57, ptr %9, align 8, !tbaa !79
  %58 = load ptr, ptr %9, align 8, !tbaa !79
  %59 = getelementptr inbounds [64 x i16], ptr %58, i64 0, i64 0
  %60 = load i16, ptr %59, align 2, !tbaa !81
  %61 = sext i16 %60 to i32
  store i32 %61, ptr %6, align 4, !tbaa !35
  %62 = load ptr, ptr %5, align 8, !tbaa !29
  %63 = load i32, ptr %6, align 4, !tbaa !35
  %64 = load i32, ptr %8, align 4, !tbaa !35
  %65 = ashr i32 %63, %64
  call void @emit_bits(ptr noundef %62, i32 noundef %65, i32 noundef 1)
  br label %66

66:                                               ; preds = %52
  %67 = load i32, ptr %7, align 4, !tbaa !35
  %68 = add nsw i32 %67, 1
  store i32 %68, ptr %7, align 4, !tbaa !35
  br label %46, !llvm.loop !90

69:                                               ; preds = %46
  %70 = load ptr, ptr %5, align 8, !tbaa !29
  %71 = getelementptr inbounds nuw %struct.phuff_entropy_encoder, ptr %70, i32 0, i32 4
  %72 = load ptr, ptr %71, align 8, !tbaa !75
  %73 = load ptr, ptr %3, align 8, !tbaa !3
  %74 = getelementptr inbounds nuw %struct.jpeg_compress_struct, ptr %73, i32 0, i32 6
  %75 = load ptr, ptr %74, align 8, !tbaa !72
  %76 = getelementptr inbounds nuw %struct.jpeg_destination_mgr, ptr %75, i32 0, i32 0
  store ptr %72, ptr %76, align 8, !tbaa !73
  %77 = load ptr, ptr %5, align 8, !tbaa !29
  %78 = getelementptr inbounds nuw %struct.phuff_entropy_encoder, ptr %77, i32 0, i32 5
  %79 = load i64, ptr %78, align 8, !tbaa !77
  %80 = load ptr, ptr %3, align 8, !tbaa !3
  %81 = getelementptr inbounds nuw %struct.jpeg_compress_struct, ptr %80, i32 0, i32 6
  %82 = load ptr, ptr %81, align 8, !tbaa !72
  %83 = getelementptr inbounds nuw %struct.jpeg_destination_mgr, ptr %82, i32 0, i32 1
  store i64 %79, ptr %83, align 8, !tbaa !76
  %84 = load ptr, ptr %3, align 8, !tbaa !3
  %85 = getelementptr inbounds nuw %struct.jpeg_compress_struct, ptr %84, i32 0, i32 30
  %86 = load i32, ptr %85, align 8, !tbaa !65
  %87 = icmp ne i32 %86, 0
  br i1 %87, label %88, label %112

88:                                               ; preds = %69
  %89 = load ptr, ptr %5, align 8, !tbaa !29
  %90 = getelementptr inbounds nuw %struct.phuff_entropy_encoder, ptr %89, i32 0, i32 14
  %91 = load i32, ptr %90, align 8, !tbaa !66
  %92 = icmp eq i32 %91, 0
  br i1 %92, label %93, label %107

93:                                               ; preds = %88
  %94 = load ptr, ptr %3, align 8, !tbaa !3
  %95 = getelementptr inbounds nuw %struct.jpeg_compress_struct, ptr %94, i32 0, i32 30
  %96 = load i32, ptr %95, align 8, !tbaa !65
  %97 = load ptr, ptr %5, align 8, !tbaa !29
  %98 = getelementptr inbounds nuw %struct.phuff_entropy_encoder, ptr %97, i32 0, i32 14
  store i32 %96, ptr %98, align 8, !tbaa !66
  %99 = load ptr, ptr %5, align 8, !tbaa !29
  %100 = getelementptr inbounds nuw %struct.phuff_entropy_encoder, ptr %99, i32 0, i32 15
  %101 = load i32, ptr %100, align 4, !tbaa !67
  %102 = add nsw i32 %101, 1
  store i32 %102, ptr %100, align 4, !tbaa !67
  %103 = load ptr, ptr %5, align 8, !tbaa !29
  %104 = getelementptr inbounds nuw %struct.phuff_entropy_encoder, ptr %103, i32 0, i32 15
  %105 = load i32, ptr %104, align 4, !tbaa !67
  %106 = and i32 %105, 7
  store i32 %106, ptr %104, align 4, !tbaa !67
  br label %107

107:                                              ; preds = %93, %88
  %108 = load ptr, ptr %5, align 8, !tbaa !29
  %109 = getelementptr inbounds nuw %struct.phuff_entropy_encoder, ptr %108, i32 0, i32 14
  %110 = load i32, ptr %109, align 8, !tbaa !66
  %111 = add i32 %110, -1
  store i32 %111, ptr %109, align 8, !tbaa !66
  br label %112

112:                                              ; preds = %107, %69
  call void @llvm.lifetime.end.p0(i64 8, ptr %9) #6
  call void @llvm.lifetime.end.p0(i64 4, ptr %8) #6
  call void @llvm.lifetime.end.p0(i64 4, ptr %7) #6
  call void @llvm.lifetime.end.p0(i64 4, ptr %6) #6
  call void @llvm.lifetime.end.p0(i64 8, ptr %5) #6
  ret i32 1
}