; Function Attrs: nounwind uwtable
define internal noundef i32 @encode_mcu_DC_refine(ptr noundef readonly captures(none) %0, ptr noundef readonly captures(none) %1) #0 {
  %3 = getelementptr inbounds nuw i8, ptr %0, i64 496
  %4 = load ptr, ptr %3, align 8, !tbaa !27
  %5 = getelementptr inbounds nuw i8, ptr %0, i64 424
  %6 = load i32, ptr %5, align 8, !tbaa !66
  %7 = getelementptr inbounds nuw i8, ptr %0, i64 40
  %8 = load ptr, ptr %7, align 8, !tbaa !68
  %9 = load ptr, ptr %8, align 8, !tbaa !69
  %10 = getelementptr inbounds nuw i8, ptr %4, i64 56
  store ptr %9, ptr %10, align 8, !tbaa !71
  %11 = getelementptr inbounds nuw i8, ptr %8, i64 8
  %12 = load i64, ptr %11, align 8, !tbaa !72
  %13 = getelementptr inbounds nuw i8, ptr %4, i64 64
  store i64 %12, ptr %13, align 8, !tbaa !73
  %14 = getelementptr inbounds nuw i8, ptr %0, i64 280
  %15 = load i32, ptr %14, align 8, !tbaa !63
  %.not = icmp eq i32 %15, 0
  br i1 %.not, label %23, label %16

16:                                               ; preds = %2
  %17 = getelementptr inbounds nuw i8, ptr %4, i64 136
  %18 = load i32, ptr %17, align 8, !tbaa !64
  %19 = icmp eq i32 %18, 0
  br i1 %19, label %20, label %23

20:                                               ; preds = %16
  %21 = getelementptr inbounds nuw i8, ptr %4, i64 140
  %22 = load i32, ptr %21, align 4, !tbaa !65
  tail call fastcc void @emit_restart(ptr noundef nonnull %4, i32 noundef %22)
  br label %23

23:                                               ; preds = %16, %20, %2
  %24 = getelementptr inbounds nuw i8, ptr %0, i64 368
  %25 = load i32, ptr %24, align 8, !tbaa !74
  %26 = icmp sgt i32 %25, 0
  br i1 %26, label %.lr.ph, label %._crit_edge

.lr.ph:                                           ; preds = %23, %.lr.ph
  %indvars.iv = phi i64 [ %indvars.iv.next, %.lr.ph ], [ 0, %23 ]
  %27 = getelementptr inbounds nuw ptr, ptr %1, i64 %indvars.iv
  %28 = load ptr, ptr %27, align 8, !tbaa !75
  %29 = load i16, ptr %28, align 2, !tbaa !77
  %30 = sext i16 %29 to i32
  %31 = ashr i32 %30, %6
  tail call fastcc void @emit_bits(ptr noundef %4, i32 noundef %31, i32 noundef 1)
  %indvars.iv.next = add nuw nsw i64 %indvars.iv, 1
  %32 = load i32, ptr %24, align 8, !tbaa !74
  %33 = sext i32 %32 to i64
  %34 = icmp slt i64 %indvars.iv.next, %33
  br i1 %34, label %.lr.ph, label %._crit_edge, !llvm.loop !87

._crit_edge:                                      ; preds = %.lr.ph, %23
  %35 = load ptr, ptr %10, align 8, !tbaa !71
  %36 = load ptr, ptr %7, align 8, !tbaa !68
  store ptr %35, ptr %36, align 8, !tbaa !69
  %37 = load i64, ptr %13, align 8, !tbaa !73
  %38 = getelementptr inbounds nuw i8, ptr %36, i64 8
  store i64 %37, ptr %38, align 8, !tbaa !72
  %39 = load i32, ptr %14, align 8, !tbaa !63
  %.not30 = icmp eq i32 %39, 0
  br i1 %.not30, label %52, label %40

40:                                               ; preds = %._crit_edge
  %41 = getelementptr inbounds nuw i8, ptr %4, i64 136
  %42 = load i32, ptr %41, align 8, !tbaa !64
  %43 = icmp eq i32 %42, 0
  br i1 %43, label %44, label %49

44:                                               ; preds = %40
  %45 = getelementptr inbounds nuw i8, ptr %4, i64 140
  %46 = load i32, ptr %45, align 4, !tbaa !65
  %47 = add nsw i32 %46, 1
  %48 = and i32 %47, 7
  store i32 %48, ptr %45, align 4, !tbaa !65
  br label %49

49:                                               ; preds = %44, %40
  %50 = phi i32 [ %39, %44 ], [ %42, %40 ]
  %51 = add i32 %50, -1
  store i32 %51, ptr %41, align 8, !tbaa !64
  br label %52

52:                                               ; preds = %49, %._crit_edge
  ret i32 1
}